target datalayout = "e-m:e-p270:32:32-p271:32:32-p272:64:64-i64:64-i128:128-f80:128-n8:16:32:64-S128"
target triple = "x86_64-pc-linux-gnu"

%"class.cv::ximgproc::segmentation::GraphSegmentationImpl" = type { %"class.cv::ximgproc::segmentation::GraphSegmentation", double, float, i32, %"class.std::__cxx11::basic_string" }
%"class.cv::ximgproc::segmentation::GraphSegmentation" = type { %"class.cv::Algorithm" }
%"class.cv::Algorithm" = type { ptr }
%"class.std::__cxx11::basic_string" = type { %"struct.std::__cxx11::basic_string<char>::_Alloc_hider", i64, %union.anon }
%"struct.std::__cxx11::basic_string<char>::_Alloc_hider" = type { ptr }
%union.anon = type { i64, [8 x i8] }
%"class.cv::ximgproc::segmentation::Edge" = type { i32, i32, float }
%"class.cv::ximgproc::segmentation::PointSet" = type { i32, ptr }
%"class.cv::ximgproc::segmentation::PointSetElement" = type { i32, i32 }

; Function Attrs: inlinehint mustprogress nounwind uwtable
define linkonce_odr void @_ZSt4swapIiENSt9enable_ifIXsr6__and_ISt6__not_ISt15__is_tuple_likeIT_EESt21is_move_constructibleIS3_ESt18is_move_assignableIS3_EEE5valueEvE4typeERS3_SC_(ptr noundef nonnull align 4 dereferenceable(4) %0, ptr noundef nonnull align 4 dereferenceable(4) %1) #7 comdat {
  %3 = alloca ptr, align 8
  %4 = alloca ptr, align 8
  %5 = alloca i32, align 4
  store ptr %0, ptr %3, align 8, !tbaa !34
  store ptr %1, ptr %4, align 8, !tbaa !34
  call void @llvm.lifetime.start.p0(i64 4, ptr %5) #3
  %6 = load ptr, ptr %3, align 8, !tbaa !34
  %7 = load i32, ptr %6, align 4, !tbaa !27
  store i32 %7, ptr %5, align 4, !tbaa !27
  %8 = load ptr, ptr %4, align 8, !tbaa !34
  %9 = load i32, ptr %8, align 4, !tbaa !27
  %10 = load ptr, ptr %3, align 8, !tbaa !34
  store i32 %9, ptr %10, align 4, !tbaa !27
  %11 = load i32, ptr %5, align 4, !tbaa !27
  %12 = load ptr, ptr %4, align 8, !tbaa !34
  store i32 %11, ptr %12, align 4, !tbaa !27
  call void @llvm.lifetime.end.p0(i64 4, ptr %5) #3
  ret void
}

; Function Attrs: mustprogress nounwind uwtable
define hidden void @_ZN2cv8ximgproc12segmentation8PointSet10joinPointsEii(ptr noundef nonnull align 8 dereferenceable(16) %0, i32 noundef %1, i32 noundef %2) #11 align 2 {
  %4 = alloca ptr, align 8
  %5 = alloca i32, align 4
  %6 = alloca i32, align 4
  store ptr %0, ptr %4, align 8, !tbaa !65
  store i32 %1, ptr %5, align 4, !tbaa !27
  store i32 %2, ptr %6, align 4, !tbaa !27
  %7 = load ptr, ptr %4, align 8
  %8 = getelementptr inbounds nuw %"class.cv::ximgproc::segmentation::PointSet", ptr %7, i32 0, i32 1
  %9 = load ptr, ptr %8, align 8, !tbaa !70
  %10 = load i32, ptr %5, align 4, !tbaa !27
  %11 = sext i32 %10 to i64
  %12 = getelementptr inbounds %"class.cv::ximgproc::segmentation::PointSetElement", ptr %9, i64 %11
  %13 = getelementptr inbounds nuw %"class.cv::ximgproc::segmentation::PointSetElement", ptr %12, i32 0, i32 1
  %14 = load i32, ptr %13, align 4, !tbaa !76
  %15 = getelementptr inbounds nuw %"class.cv::ximgproc::segmentation::PointSet", ptr %7, i32 0, i32 1
  %16 = load ptr, ptr %15, align 8, !tbaa !70
  %17 = load i32, ptr %6, align 4, !tbaa !27
  %18 = sext i32 %17 to i64
  %19 = getelementptr inbounds %"class.cv::ximgproc::segmentation::PointSetElement", ptr %16, i64 %18
  %20 = getelementptr inbounds nuw %"class.cv::ximgproc::segmentation::PointSetElement", ptr %19, i32 0, i32 1
  %21 = load i32, ptr %20, align 4, !tbaa !76
  %22 = icmp slt i32 %14, %21
  br i1 %22, label %23, label %24

23:                                               ; preds = %3
  call void @_ZSt4swapIiENSt9enable_ifIXsr6__and_ISt6__not_ISt15__is_tuple_likeIT_EESt21is_move_constructibleIS3_ESt18is_move_assignableIS3_EEE5valueEvE4typeERS3_SC_(ptr noundef nonnull align 4 dereferenceable(4) %5, ptr noundef nonnull align 4 dereferenceable(4) %6) #3
  br label %24

24:                                               ; preds = %23, %3
  %25 = load i32, ptr %5, align 4, !tbaa !27
  %26 = getelementptr inbounds nuw %"class.cv::ximgproc::segmentation::PointSet", ptr %7, i32 0, i32 1
  %27 = load ptr, ptr %26, align 8, !tbaa !70
  %28 = load i32, ptr %6, align 4, !tbaa !27
  %29 = sext i32 %28 to i64
  %30 = getelementptr inbounds %"class.cv::ximgproc::segmentation::PointSetElement", ptr %27, i64 %29
  %31 = getelementptr inbounds nuw %"class.cv::ximgproc::segmentation::PointSetElement", ptr %30, i32 0, i32 0
  store i32 %25, ptr %31, align 4, !tbaa !73
  %32 = getelementptr inbounds nuw %"class.cv::ximgproc::segmentation::PointSet", ptr %7, i32 0, i32 1
  %33 = load ptr, ptr %32, align 8, !tbaa !70
  %34 = load i32, ptr %6, align 4, !tbaa !27
  %35 = sext i32 %34 to i64
  %36 = getelementptr inbounds %"class.cv::ximgproc::segmentation::PointSetElement", ptr %33, i64 %35
  %37 = getelementptr inbounds nuw %"class.cv::ximgproc::segmentation::PointSetElement", ptr %36, i32 0, i32 1
  %38 = load i32, ptr %37, align 4, !tbaa !76
  %39 = getelementptr inbounds nuw %"class.cv::ximgproc::segmentation::PointSet", ptr %7, i32 0, i32 1
  %40 = load ptr, ptr %39, align 8, !tbaa !70
  %41 = load i32, ptr %5, align 4, !tbaa !27
  %42 = sext i32 %41 to i64
  %43 = getelementptr inbounds %"class.cv::ximgproc::segmentation::PointSetElement", ptr %40, i64 %42
  %44 = getelementptr inbounds nuw %"class.cv::ximgproc::segmentation::PointSetElement", ptr %43, i32 0, i32 1
  %45 = load i32, ptr %44, align 4, !tbaa !76
  %46 = add nsw i32 %45, %38
  store i32 %46, ptr %44, align 4, !tbaa !76
  %47 = getelementptr inbounds nuw %"class.cv::ximgproc::segmentation::PointSet", ptr %7, i32 0, i32 0
  %48 = load i32, ptr %47, align 8, !tbaa !77
  %49 = add nsw i32 %48, -1
  store i32 %49, ptr %47, align 8, !tbaa !77
  ret void
}

; Function Attrs: mustprogress nounwind uwtable
define linkonce_odr hidden noundef i32 @_ZN2cv8ximgproc12segmentation8PointSet4sizeEj(ptr noundef nonnull align 8 dereferenceable(16) %0, i32 noundef %1) #11 comdat align 2 {
  %3 = alloca ptr, align 8
  %4 = alloca i32, align 4
  store ptr %0, ptr %3, align 8, !tbaa !65
  store i32 %1, ptr %4, align 4, !tbaa !27
  %5 = load ptr, ptr %3, align 8
  %6 = getelementptr inbounds nuw %"class.cv::ximgproc::segmentation::PointSet", ptr %5, i32 0, i32 1
  %7 = load ptr, ptr %6, align 8, !tbaa !70
  %8 = load i32, ptr %4, align 4, !tbaa !27
  %9 = zext i32 %8 to i64
  %10 = getelementptr inbounds nuw %"class.cv::ximgproc::segmentation::PointSetElement", ptr %7, i64 %9
  %11 = getelementptr inbounds nuw %"class.cv::ximgproc::segmentation::PointSetElement", ptr %10, i32 0, i32 1
  %12 = load i32, ptr %11, align 4, !tbaa !76
  ret i32 %12
}

; Function Attrs: mustprogress nounwind uwtable
define hidden noundef i32 @_ZN2cv8ximgproc12segmentation8PointSet12getBasePointEi(ptr noundef nonnull align 8 dereferenceable(16) %0, i32 noundef %1) #11 align 2 {
  %3 = alloca ptr, align 8
  %4 = alloca i32, align 4
  %5 = alloca i32, align 4
  store ptr %0, ptr %3, align 8, !tbaa !65
  store i32 %1, ptr %4, align 4, !tbaa !27
  %6 = load ptr, ptr %3, align 8
  call void @llvm.lifetime.start.p0(i64 4, ptr %5) #3
  %7 = load i32, ptr %4, align 4, !tbaa !27
  store i32 %7, ptr %5, align 4, !tbaa !27
  br label %8

8:                                                ; preds = %18, %2
  %9 = load i32, ptr %5, align 4, !tbaa !27
  %10 = getelementptr inbounds nuw %"class.cv::ximgproc::segmentation::PointSet", ptr %6, i32 0, i32 1
  %11 = load ptr, ptr %10, align 8, !tbaa !70
  %12 = load i32, ptr %5, align 4, !tbaa !27
  %13 = sext i32 %12 to i64
  %14 = getelementptr inbounds %"class.cv::ximgproc::segmentation::PointSetElement", ptr %11, i64 %13
  %15 = getelementptr inbounds nuw %"class.cv::ximgproc::segmentation::PointSetElement", ptr %14, i32 0, i32 0
  %16 = load i32, ptr %15, align 4, !tbaa !73
  %17 = icmp ne i32 %9, %16
  br i1 %17, label %18, label %26

18:                                               ; preds = %8
  %19 = getelementptr inbounds nuw %"class.cv::ximgproc::segmentation::PointSet", ptr %6, i32 0, i32 1
  %20 = load ptr, ptr %19, align 8, !tbaa !70
  %21 = load i32, ptr %5, align 4, !tbaa !27
  %22 = sext i32 %21 to i64
  %23 = getelementptr inbounds %"class.cv::ximgproc::segmentation::PointSetElement", ptr %20, i64 %22
  %24 = getelementptr inbounds nuw %"class.cv::ximgproc::segmentation::PointSetElement", ptr %23, i32 0, i32 0
  %25 = load i32, ptr %24, align 4, !tbaa !73
  store i32 %25, ptr %5, align 4, !tbaa !27
  br label %8, !llvm.loop !75

26:                                               ; preds = %8
  %27 = load i32, ptr %5, align 4, !tbaa !27
  %28 = getelementptr inbounds nuw %"class.cv::ximgproc::segmentation::PointSet", ptr %6, i32 0, i32 1
  %29 = load ptr, ptr %28, align 8, !tbaa !70
  %30 = load i32, ptr %4, align 4, !tbaa !27
  %31 = sext i32 %30 to i64
  %32 = getelementptr inbounds %"class.cv::ximgproc::segmentation::PointSetElement", ptr %29, i64 %31
  %33 = getelementptr inbounds nuw %"class.cv::ximgproc::segmentation::PointSetElement", ptr %32, i32 0, i32 0
  store i32 %27, ptr %33, align 4, !tbaa !73
  %34 = load i32, ptr %5, align 4, !tbaa !27
  call void @llvm.lifetime.end.p0(i64 4, ptr %5) #3
  ret i32 %34
}

; Function Attrs: mustprogress uwtable
define hidden void @_ZN2cv8ximgproc12segmentation21GraphSegmentationImpl16filterSmallAreasEPNS1_4EdgeERKiPNS1_8PointSetE(ptr noundef nonnull align 8 dereferenceable(56) %0, ptr noundef %1, ptr noundef nonnull align 4 dereferenceable(4) %2, ptr noundef %3) #4 align 2 {
  %5 = alloca ptr, align 8
  %6 = alloca ptr, align 8
  %7 = alloca ptr, align 8
  %8 = alloca ptr, align 8
  %9 = alloca i32, align 4
  %10 = alloca i32, align 4
  %11 = alloca i32, align 4
  store ptr %0, ptr %5, align 8, !tbaa !3
  store ptr %1, ptr %6, align 8, !tbaa !44
  store ptr %2, ptr %7, align 8, !tbaa !34
  store ptr %3, ptr %8, align 8, !tbaa !65
  %12 = load ptr, ptr %5, align 8
  call void @llvm.lifetime.start.p0(i64 4, ptr %9) #3
  store i32 0, ptr %9, align 4, !tbaa !27
  br label %13

13:                                               ; preds = %67, %4
  %14 = load i32, ptr %9, align 4, !tbaa !27
  %15 = load ptr, ptr %7, align 8, !tbaa !34
  %16 = load i32, ptr %15, align 4, !tbaa !27
  %17 = icmp slt i32 %14, %16
  br i1 %17, label %19, label %18

18:                                               ; preds = %13
  call void @llvm.lifetime.end.p0(i64 4, ptr %9) #3
  br label %70

19:                                               ; preds = %13
  %20 = load ptr, ptr %6, align 8, !tbaa !44
  %21 = load i32, ptr %9, align 4, !tbaa !27
  %22 = sext i32 %21 to i64
  %23 = getelementptr inbounds %"class.cv::ximgproc::segmentation::Edge", ptr %20, i64 %22
  %24 = getelementptr inbounds nuw %"class.cv::ximgproc::segmentation::Edge", ptr %23, i32 0, i32 2
  %25 = load float, ptr %24, align 4, !tbaa !51
  %26 = fcmp ogt float %25, 0.000000e+00
  br i1 %26, label %27, label %66

27:                                               ; preds = %19
  call void @llvm.lifetime.start.p0(i64 4, ptr %10) #3
  %28 = load ptr, ptr %8, align 8, !tbaa !65
  %29 = load ptr, ptr %6, align 8, !tbaa !44
  %30 = load i32, ptr %9, align 4, !tbaa !27
  %31 = sext i32 %30 to i64
  %32 = getelementptr inbounds %"class.cv::ximgproc::segmentation::Edge", ptr %29, i64 %31
  %33 = getelementptr inbounds nuw %"class.cv::ximgproc::segmentation::Edge", ptr %32, i32 0, i32 0
  %34 = load i32, ptr %33, align 4, !tbaa !53
  %35 = call noundef i32 @_ZN2cv8ximgproc12segmentation8PointSet12getBasePointEi(ptr noundef nonnull align 8 dereferenceable(16) %28, i32 noundef %34)
  store i32 %35, ptr %10, align 4, !tbaa !27
  call void @llvm.lifetime.start.p0(i64 4, ptr %11) #3
  %36 = load ptr, ptr %8, align 8, !tbaa !65
  %37 = load ptr, ptr %6, align 8, !tbaa !44
  %38 = load i32, ptr %9, align 4, !tbaa !27
  %39 = sext i32 %38 to i64
  %40 = getelementptr inbounds %"class.cv::ximgproc::segmentation::Edge", ptr %37, i64 %39
  %41 = getelementptr inbounds nuw %"class.cv::ximgproc::segmentation::Edge", ptr %40, i32 0, i32 1
  %42 = load i32, ptr %41, align 4, !tbaa !54
  %43 = call noundef i32 @_ZN2cv8ximgproc12segmentation8PointSet12getBasePointEi(ptr noundef nonnull align 8 dereferenceable(16) %36, i32 noundef %42)
  store i32 %43, ptr %11, align 4, !tbaa !27
  %44 = load i32, ptr %10, align 4, !tbaa !27
  %45 = load i32, ptr %11, align 4, !tbaa !27
  %46 = icmp ne i32 %44, %45
  br i1 %46, label %47, label %65

47:                                               ; preds = %27
  %48 = load ptr, ptr %8, align 8, !tbaa !65
  %49 = load i32, ptr %10, align 4, !tbaa !27
  %50 = call noundef i32 @_ZN2cv8ximgproc12segmentation8PointSet4sizeEj(ptr noundef nonnull align 8 dereferenceable(16) %48, i32 noundef %49)
  %51 = getelementptr inbounds nuw %"class.cv::ximgproc::segmentation::GraphSegmentationImpl", ptr %12, i32 0, i32 3
  %52 = load i32, ptr %51, align 4, !tbaa !78
  %53 = icmp slt i32 %50, %52
  br i1 %53, label %61, label %54

54:                                               ; preds = %47
  %55 = load ptr, ptr %8, align 8, !tbaa !65
  %56 = load i32, ptr %11, align 4, !tbaa !27
  %57 = call noundef i32 @_ZN2cv8ximgproc12segmentation8PointSet4sizeEj(ptr noundef nonnull align 8 dereferenceable(16) %55, i32 noundef %56)
  %58 = getelementptr inbounds nuw %"class.cv::ximgproc::segmentation::GraphSegmentationImpl", ptr %12, i32 0, i32 3
  %59 = load i32, ptr %58, align 4, !tbaa !78
  %60 = icmp slt i32 %57, %59
  br i1 %60, label %61, label %65

61:                                               ; preds = %54, %47
  %62 = load ptr, ptr %8, align 8, !tbaa !65
  %63 = load i32, ptr %10, align 4, !tbaa !27
  %64 = load i32, ptr %11, align 4, !tbaa !27
  call void @_ZN2cv8ximgproc12segmentation8PointSet10joinPointsEii(ptr noundef nonnull align 8 dereferenceable(16) %62, i32 noundef %63, i32 noundef %64)
  br label %65

65:                                               ; preds = %61, %54, %27
  call void @llvm.lifetime.end.p0(i64 4, ptr %11) #3
  call void @llvm.lifetime.end.p0(i64 4, ptr %10) #3
  br label %66

66:                                               ; preds = %65, %19
  br label %67

67:                                               ; preds = %66
  %68 = load i32, ptr %9, align 4, !tbaa !27
  %69 = add nsw i32 %68, 1
  store i32 %69, ptr %9, align 4, !tbaa !27
  br label %13, !llvm.loop !79

70:                                               ; preds = %18
  ret void
}