; Function Attrs: mustprogress nofree norecurse nosync nounwind memory(readwrite, inaccessiblemem: none) uwtable
define hidden void @_ZN2cv8ximgproc12segmentation21GraphSegmentationImpl16filterSmallAreasEPNS1_4EdgeERKiPNS1_8PointSetE(ptr noundef nonnull readonly align 8 captures(none) dereferenceable(56) %0, ptr noundef readonly captures(none) %1, ptr noundef nonnull readonly align 4 captures(none) dereferenceable(4) %2, ptr noundef captures(none) %3) local_unnamed_addr #8 align 2 {
  %5 = load i32, ptr %2, align 4, !tbaa !34
  %6 = icmp sgt i32 %5, 0
  br i1 %6, label %.lr.ph, label %._crit_edge

.lr.ph:                                           ; preds = %4
  %7 = getelementptr inbounds nuw i8, ptr %3, i64 8
  %8 = getelementptr inbounds nuw i8, ptr %0, i64 20
  %9 = load i32, ptr %8, align 4
  br label %10

._crit_edge:                                      ; preds = %58, %4
  ret void

10:                                               ; preds = %.lr.ph, %58
  %indvars.iv = phi i64 [ 0, %.lr.ph ], [ %indvars.iv.next, %58 ]
  %11 = getelementptr inbounds nuw %"class.cv::ximgproc::segmentation::Edge", ptr %1, i64 %indvars.iv
  %12 = getelementptr inbounds nuw i8, ptr %11, i64 8
  %13 = load float, ptr %12, align 4, !tbaa !44
  %14 = fcmp ogt float %13, 0.000000e+00
  br i1 %14, label %15, label %58

15:                                               ; preds = %10
  %16 = load i32, ptr %11, align 4, !tbaa !46
  %17 = load ptr, ptr %7, align 8, !tbaa !54
  br label %18

18:                                               ; preds = %18, %15
  %.0.i = phi i32 [ %16, %15 ], [ %21, %18 ]
  %19 = sext i32 %.0.i to i64
  %20 = getelementptr inbounds %"class.cv::ximgproc::segmentation::PointSetElement", ptr %17, i64 %19
  %21 = load i32, ptr %20, align 4, !tbaa !60
  %.not.i = icmp eq i32 %.0.i, %21
  br i1 %.not.i, label %_ZN2cv8ximgproc12segmentation8PointSet12getBasePointEi.exit, label %18, !llvm.loop !62

_ZN2cv8ximgproc12segmentation8PointSet12getBasePointEi.exit: ; preds = %18
  %22 = sext i32 %16 to i64
  %23 = getelementptr inbounds %"class.cv::ximgproc::segmentation::PointSetElement", ptr %17, i64 %22
  store i32 %.0.i, ptr %23, align 4, !tbaa !60
  %24 = getelementptr inbounds nuw i8, ptr %11, i64 4
  %25 = load i32, ptr %24, align 4, !tbaa !47
  br label %26

26:                                               ; preds = %26, %_ZN2cv8ximgproc12segmentation8PointSet12getBasePointEi.exit
  %.0.i22 = phi i32 [ %25, %_ZN2cv8ximgproc12segmentation8PointSet12getBasePointEi.exit ], [ %29, %26 ]
  %27 = sext i32 %.0.i22 to i64
  %28 = getelementptr inbounds %"class.cv::ximgproc::segmentation::PointSetElement", ptr %17, i64 %27
  %29 = load i32, ptr %28, align 4, !tbaa !60
  %.not.i23 = icmp eq i32 %.0.i22, %29
  br i1 %.not.i23, label %_ZN2cv8ximgproc12segmentation8PointSet12getBasePointEi.exit24, label %26, !llvm.loop !62

_ZN2cv8ximgproc12segmentation8PointSet12getBasePointEi.exit24: ; preds = %26
  %30 = sext i32 %25 to i64
  %31 = getelementptr inbounds %"class.cv::ximgproc::segmentation::PointSetElement", ptr %17, i64 %30
  store i32 %.0.i22, ptr %31, align 4, !tbaa !60
  %.not = icmp eq i32 %.0.i, %.0.i22
  br i1 %.not, label %58, label %32

32:                                               ; preds = %_ZN2cv8ximgproc12segmentation8PointSet12getBasePointEi.exit24
  %33 = zext i32 %.0.i to i64
  %34 = getelementptr inbounds nuw %"class.cv::ximgproc::segmentation::PointSetElement", ptr %17, i64 %33, i32 1
  %35 = load i32, ptr %34, align 4, !tbaa !63
  %36 = icmp slt i32 %35, %9
  br i1 %36, label %42, label %37

37:                                               ; preds = %32
  %38 = zext i32 %.0.i22 to i64
  %39 = getelementptr inbounds nuw %"class.cv::ximgproc::segmentation::PointSetElement", ptr %17, i64 %38, i32 1
  %40 = load i32, ptr %39, align 4, !tbaa !63
  %41 = icmp slt i32 %40, %9
  br i1 %41, label %42, label %58

42:                                               ; preds = %37, %32
  %43 = getelementptr inbounds %"class.cv::ximgproc::segmentation::PointSetElement", ptr %17, i64 %19, i32 1
  %44 = load i32, ptr %43, align 4, !tbaa !63
  %45 = getelementptr inbounds %"class.cv::ximgproc::segmentation::PointSetElement", ptr %17, i64 %27, i32 1
  %46 = load i32, ptr %45, align 4, !tbaa !63
  %47 = icmp slt i32 %44, %46
  %spec.select.i = select i1 %47, i32 %.0.i22, i32 %.0.i
  %spec.select7.i = select i1 %47, i32 %.0.i, i32 %.0.i22
  %48 = sext i32 %spec.select7.i to i64
  %49 = getelementptr inbounds %"class.cv::ximgproc::segmentation::PointSetElement", ptr %17, i64 %48
  store i32 %spec.select.i, ptr %49, align 4, !tbaa !60
  %50 = getelementptr inbounds %"class.cv::ximgproc::segmentation::PointSetElement", ptr %17, i64 %48, i32 1
  %51 = load i32, ptr %50, align 4, !tbaa !63
  %52 = sext i32 %spec.select.i to i64
  %53 = getelementptr inbounds %"class.cv::ximgproc::segmentation::PointSetElement", ptr %17, i64 %52, i32 1
  %54 = load i32, ptr %53, align 4, !tbaa !63
  %55 = add nsw i32 %54, %51
  store i32 %55, ptr %53, align 4, !tbaa !63
  %56 = load i32, ptr %3, align 8, !tbaa !51
  %57 = add nsw i32 %56, -1
  store i32 %57, ptr %3, align 8, !tbaa !51
  br label %58

58:                                               ; preds = %_ZN2cv8ximgproc12segmentation8PointSet12getBasePointEi.exit24, %37, %42, %10
  %indvars.iv.next = add nuw nsw i64 %indvars.iv, 1
  %59 = load i32, ptr %2, align 4, !tbaa !34
  %60 = sext i32 %59 to i64
  %61 = icmp slt i64 %indvars.iv.next, %60
  br i1 %61, label %10, label %._crit_edge, !llvm.loop !65
}